; Function Attrs: nounwind uwtable
define hidden void @luaT_trybinTM(ptr noundef %0, ptr noundef %1, ptr noundef %2, ptr noundef %3, i32 noundef %4) local_unnamed_addr #0 {
  %6 = tail call fastcc i32 @callbinTM(ptr noundef %0, ptr noundef %1, ptr noundef %2, ptr noundef %3, i32 noundef %4)
  %7 = icmp slt i32 %6, 0
  br i1 %7, label %8, label %22, !prof !41

8:                                                ; preds = %5
  switch i32 %4, label %21 [
    i32 13, label %9
    i32 14, label %9
    i32 15, label %9
    i32 16, label %9
    i32 17, label %9
    i32 19, label %9
  ]

9:                                                ; preds = %8, %8, %8, %8, %8, %8
  %10 = getelementptr inbounds nuw i8, ptr %1, i64 8
  %11 = load i8, ptr %10, align 8, !tbaa !24
  %12 = and i8 %11, 15
  %13 = icmp eq i8 %12, 3
  br i1 %13, label %14, label %20

14:                                               ; preds = %9
  %15 = getelementptr inbounds nuw i8, ptr %2, i64 8
  %16 = load i8, ptr %15, align 8, !tbaa !24
  %17 = and i8 %16, 15
  %18 = icmp eq i8 %17, 3
  br i1 %18, label %19, label %20

19:                                               ; preds = %14
  tail call void @luaG_tointerror(ptr noundef %0, ptr noundef nonnull %1, ptr noundef nonnull %2) #6
  unreachable

20:                                               ; preds = %14, %9
  tail call void @luaG_opinterror(ptr noundef %0, ptr noundef nonnull %1, ptr noundef %2, ptr noundef nonnull @.str.36) #6
  unreachable

21:                                               ; preds = %8
  tail call void @luaG_opinterror(ptr noundef %0, ptr noundef %1, ptr noundef %2, ptr noundef nonnull @.str.37) #6
  unreachable

22:                                               ; preds = %5
  ret void
}